target datalayout = "e-m:e-p270:32:32-p271:32:32-p272:64:64-i64:64-i128:128-f80:128-n8:16:32:64-S128"
target triple = "x86_64-pc-linux-gnu"

%class.rational = type { %class.mpq }
%class.mpq = type { %class.mpz, %class.mpz }
%class.mpz = type { i32, i8, ptr }
%"struct.opt::model_based_opt::row" = type { %class.vector, %class.rational, %class.rational, i32, %class.rational, i8, i32 }
%class.vector = type { ptr }
%"class.opt::model_based_opt" = type { %class.vector.0, %class.vector.1, %class.vector.2, %class.svector, %class.vector, %class.svector.4, %class.svector.4, %class.svector.4, %class.svector.4, %class.svector.4, %class.svector.4, %class.svector.4, %class.svector.4, %class.vector.6 }
%class.vector.0 = type { ptr }
%class.vector.1 = type { ptr }
%class.vector.2 = type { ptr }
%class.svector = type { %class.vector.3 }
%class.vector.3 = type { ptr }
%class.svector.4 = type { %class.vector.5 }
%class.vector.5 = type { ptr }
%class.vector.6 = type { ptr }

; Function Attrs: mustprogress uwtable
define linkonce_odr hidden noundef nonnull align 8 dereferenceable(8) ptr @_ZN6vectorIjLb0EjE9push_backERKj(ptr noundef nonnull align 8 dereferenceable(8) %0, ptr noundef nonnull align 4 dereferenceable(4) %1) #4 comdat align 2 {
  %3 = alloca ptr, align 8
  %4 = alloca ptr, align 8
  store ptr %0, ptr %3, align 8, !tbaa !99
  store ptr %1, ptr %4, align 8, !tbaa !96
  %5 = load ptr, ptr %3, align 8
  %6 = getelementptr inbounds nuw %class.vector.5, ptr %5, i32 0, i32 0
  %7 = load ptr, ptr %6, align 8, !tbaa !101
  %8 = icmp eq ptr %7, null
  br i1 %8, label %19, label %9

9:                                                ; preds = %2
  %10 = getelementptr inbounds nuw %class.vector.5, ptr %5, i32 0, i32 0
  %11 = load ptr, ptr %10, align 8, !tbaa !101
  %12 = getelementptr inbounds i32, ptr %11, i64 -1
  %13 = load i32, ptr %12, align 4, !tbaa !16
  %14 = getelementptr inbounds nuw %class.vector.5, ptr %5, i32 0, i32 0
  %15 = load ptr, ptr %14, align 8, !tbaa !101
  %16 = getelementptr inbounds i32, ptr %15, i64 -2
  %17 = load i32, ptr %16, align 4, !tbaa !16
  %18 = icmp eq i32 %13, %17
  br i1 %18, label %19, label %20

19:                                               ; preds = %9, %2
  call void @_ZN6vectorIjLb0EjE13expand_vectorEv(ptr noundef nonnull align 8 dereferenceable(8) %5)
  br label %20

20:                                               ; preds = %19, %9
  %21 = getelementptr inbounds nuw %class.vector.5, ptr %5, i32 0, i32 0
  %22 = load ptr, ptr %21, align 8, !tbaa !101
  %23 = getelementptr inbounds nuw %class.vector.5, ptr %5, i32 0, i32 0
  %24 = load ptr, ptr %23, align 8, !tbaa !101
  %25 = getelementptr inbounds i32, ptr %24, i64 -1
  %26 = load i32, ptr %25, align 4, !tbaa !16
  %27 = zext i32 %26 to i64
  %28 = getelementptr inbounds nuw i32, ptr %22, i64 %27
  %29 = load ptr, ptr %4, align 8, !tbaa !96
  %30 = load i32, ptr %29, align 4, !tbaa !16
  store i32 %30, ptr %28, align 4, !tbaa !16
  %31 = getelementptr inbounds nuw %class.vector.5, ptr %5, i32 0, i32 0
  %32 = load ptr, ptr %31, align 8, !tbaa !101
  %33 = getelementptr inbounds i32, ptr %32, i64 -1
  %34 = load i32, ptr %33, align 4, !tbaa !16
  %35 = add i32 %34, 1
  store i32 %35, ptr %33, align 4, !tbaa !16
  ret ptr %5
}

; Function Attrs: mustprogress nounwind uwtable
define linkonce_odr hidden noundef nonnull align 8 dereferenceable(120) ptr @_ZN6vectorIN3opt15model_based_opt3rowELb1EjEixEj(ptr noundef nonnull align 8 dereferenceable(8) %0, i32 noundef %1) #7 comdat align 2 {
  %3 = alloca ptr, align 8
  %4 = alloca i32, align 4
  store ptr %0, ptr %3, align 8, !tbaa !68
  store i32 %1, ptr %4, align 4, !tbaa !16
  %5 = load ptr, ptr %3, align 8
  %6 = getelementptr inbounds nuw %class.vector.0, ptr %5, i32 0, i32 0
  %7 = load ptr, ptr %6, align 8, !tbaa !70
  %8 = load i32, ptr %4, align 4, !tbaa !16
  %9 = zext i32 %8 to i64
  %10 = getelementptr inbounds nuw %"struct.opt::model_based_opt::row", ptr %7, i64 %9
  ret ptr %10
}

; Function Attrs: mustprogress uwtable
define hidden void @_ZN3opt15model_based_opt10retire_rowEj(ptr noundef nonnull align 8 dereferenceable(112) %0, i32 noundef %1) #4 align 2 {
  %3 = alloca ptr, align 8
  %4 = alloca i32, align 4
  store ptr %0, ptr %3, align 8, !tbaa !66
  store i32 %1, ptr %4, align 4, !tbaa !16
  %5 = load ptr, ptr %3, align 8
  %6 = getelementptr inbounds nuw %"class.opt::model_based_opt", ptr %5, i32 0, i32 0
  %7 = load i32, ptr %4, align 4, !tbaa !16
  %8 = call noundef nonnull align 8 dereferenceable(120) ptr @_ZN6vectorIN3opt15model_based_opt3rowELb1EjEixEj(ptr noundef nonnull align 8 dereferenceable(8) %6, i32 noundef %7)
  %9 = getelementptr inbounds nuw %"struct.opt::model_based_opt::row", ptr %8, i32 0, i32 5
  store i8 0, ptr %9, align 8, !tbaa !89
  %10 = getelementptr inbounds nuw %"class.opt::model_based_opt", ptr %5, i32 0, i32 12
  %11 = call noundef nonnull align 8 dereferenceable(8) ptr @_ZN6vectorIjLb0EjE9push_backERKj(ptr noundef nonnull align 8 dereferenceable(8) %10, ptr noundef nonnull align 4 dereferenceable(4) %4)
  ret void
}