; Function Attrs: mustprogress uwtable
define hidden void @_ZN3opt15model_based_opt10retire_rowEj(ptr noundef nonnull align 8 dereferenceable(112) %0, i32 noundef %1) local_unnamed_addr #3 align 2 {
  %3 = load ptr, ptr %0, align 8, !tbaa !53
  %4 = zext i32 %1 to i64
  %5 = getelementptr inbounds nuw %"struct.opt::model_based_opt::row", ptr %3, i64 %4, i32 5
  store i8 0, ptr %5, align 8, !tbaa !57
  %6 = getelementptr inbounds nuw i8, ptr %0, i64 96
  %7 = load ptr, ptr %6, align 8, !tbaa !77
  %8 = icmp eq ptr %7, null
  br i1 %8, label %15, label %9

9:                                                ; preds = %2
  %10 = getelementptr inbounds i8, ptr %7, i64 -4
  %11 = load i32, ptr %10, align 4, !tbaa !19
  %12 = getelementptr inbounds i8, ptr %7, i64 -8
  %13 = load i32, ptr %12, align 4, !tbaa !19
  %14 = icmp eq i32 %11, %13
  br i1 %14, label %15, label %_ZN6vectorIjLb0EjE9push_backERKj.exit

15:                                               ; preds = %9, %2
  tail call void @_ZN6vectorIjLb0EjE13expand_vectorEv(ptr noundef nonnull align 8 dereferenceable(8) %6)
  %.pre.i = load ptr, ptr %6, align 8, !tbaa !77
  %.phi.trans.insert.i = getelementptr inbounds i8, ptr %.pre.i, i64 -4
  %.pre2.i = load i32, ptr %.phi.trans.insert.i, align 4, !tbaa !19
  br label %_ZN6vectorIjLb0EjE9push_backERKj.exit

_ZN6vectorIjLb0EjE9push_backERKj.exit:            ; preds = %9, %15
  %16 = phi i32 [ %.pre2.i, %15 ], [ %11, %9 ]
  %17 = phi ptr [ %.pre.i, %15 ], [ %7, %9 ]
  %18 = getelementptr inbounds i8, ptr %17, i64 -4
  %19 = zext i32 %16 to i64
  %20 = getelementptr inbounds nuw i32, ptr %17, i64 %19
  store i32 %1, ptr %20, align 4, !tbaa !19
  %21 = add i32 %16, 1
  store i32 %21, ptr %18, align 4, !tbaa !19
  ret void
}